target datalayout = "e-m:e-p270:32:32-p271:32:32-p272:64:64-i64:64-i128:128-f80:128-n8:16:32:64-S128"
target triple = "x86_64-pc-linux-gnu"

%"class.llvm::StringRef" = type { ptr, i64 }
%"class.llvm::SmallVectorBase" = type { ptr, i32, i32 }
%"class.llvm::gi::PatFrag" = type { ptr, i32, %"class.llvm::SmallVector.111", %"class.llvm::SmallVector.116" }
%"class.llvm::SmallVector.111" = type { %"class.llvm::SmallVectorImpl.112", %"struct.llvm::SmallVectorStorage.115" }
%"class.llvm::SmallVectorImpl.112" = type { %"class.llvm::SmallVectorTemplateBase.113" }
%"class.llvm::SmallVectorTemplateBase.113" = type { %"class.llvm::SmallVectorTemplateCommon.114" }
%"class.llvm::SmallVectorTemplateCommon.114" = type { %"class.llvm::SmallVectorBase" }
%"struct.llvm::SmallVectorStorage.115" = type { [96 x i8] }
%"class.llvm::SmallVector.116" = type { %"class.llvm::SmallVectorImpl.117", %"struct.llvm::SmallVectorStorage.120" }
%"class.llvm::SmallVectorImpl.117" = type { %"class.llvm::SmallVectorTemplateBase.118" }
%"class.llvm::SmallVectorTemplateBase.118" = type { %"class.llvm::SmallVectorTemplateCommon.119" }
%"class.llvm::SmallVectorTemplateCommon.119" = type { %"class.llvm::SmallVectorBase" }
%"struct.llvm::SmallVectorStorage.120" = type { [144 x i8] }
%"struct.llvm::gi::PatFrag::Param" = type <{ %"class.llvm::StringRef", i32, [4 x i8] }>
%"class.llvm::iterator_range.121" = type { ptr, ptr }
%"struct.__gnu_cxx::__ops::_Iter_pred" = type { i8 }

; Function Attrs: mustprogress nounwind uwtable
define internal noundef zeroext i1 @"_ZZNK4llvm2gi7PatFrag9num_rootsEvENK3$_0clINS1_5ParamEEEDaRKT_"(ptr noundef nonnull align 1 dereferenceable(1) %0, ptr noundef nonnull align 8 dereferenceable(20) %1) #0 align 2 {
  %3 = alloca ptr, align 8
  %4 = alloca ptr, align 8
  store ptr %0, ptr %3, align 8
  store ptr %1, ptr %4, align 8
  %5 = load ptr, ptr %4, align 8
  %6 = getelementptr inbounds nuw %"struct.llvm::gi::PatFrag::Param", ptr %5, i32 0, i32 1
  %7 = load i32, ptr %6, align 8
  %8 = icmp eq i32 %7, 0
  ret i1 %8
}

; Function Attrs: mustprogress nounwind uwtable
define linkonce_odr hidden noundef ptr @_ZNK4llvm14iterator_rangeIPKNS_2gi7PatFrag5ParamEE3endEv(ptr noundef nonnull align 8 dereferenceable(16) %0) #0 comdat align 2 {
  %2 = alloca ptr, align 8
  store ptr %0, ptr %2, align 8
  %3 = load ptr, ptr %2, align 8
  %4 = getelementptr inbounds nuw %"class.llvm::iterator_range.121", ptr %3, i32 0, i32 1
  %5 = load ptr, ptr %4, align 8
  ret ptr %5
}

; Function Attrs: mustprogress nounwind uwtable
define linkonce_odr hidden noundef ptr @_ZNK4llvm14iterator_rangeIPKNS_2gi7PatFrag5ParamEE5beginEv(ptr noundef nonnull align 8 dereferenceable(16) %0) #0 comdat align 2 {
  %2 = alloca ptr, align 8
  store ptr %0, ptr %2, align 8
  %3 = load ptr, ptr %2, align 8
  %4 = getelementptr inbounds nuw %"class.llvm::iterator_range.121", ptr %3, i32 0, i32 0
  %5 = load ptr, ptr %4, align 8
  ret ptr %5
}

; Function Attrs: mustprogress nounwind uwtable
define internal noundef zeroext i1 @"_ZN9__gnu_cxx5__ops10_Iter_predIZNK4llvm2gi7PatFrag9num_rootsEvE3$_0EclIPKNS4_5ParamEEEbT_"(ptr noundef nonnull align 1 dereferenceable(1) %0, ptr noundef %1) #0 align 2 {
  %3 = alloca ptr, align 8
  %4 = alloca ptr, align 8
  store ptr %0, ptr %3, align 8
  store ptr %1, ptr %4, align 8
  %5 = load ptr, ptr %3, align 8
  %6 = load ptr, ptr %4, align 8
  %7 = call noundef zeroext i1 @"_ZZNK4llvm2gi7PatFrag9num_rootsEvENK3$_0clINS1_5ParamEEEDaRKT_"(ptr noundef nonnull align 1 dereferenceable(1) %5, ptr noundef nonnull align 8 dereferenceable(20) %6)
  ret i1 %7
}

; Function Attrs: mustprogress nounwind uwtable
define internal void @"_ZN9__gnu_cxx5__ops10_Iter_predIZNK4llvm2gi7PatFrag9num_rootsEvE3$_0EC2ES5_"(ptr noundef nonnull align 1 dereferenceable(1) %0) unnamed_addr #0 align 2 {
  %2 = alloca ptr, align 8
  store ptr %0, ptr %2, align 8
  ret void
}

; Function Attrs: mustprogress nounwind uwtable
define linkonce_odr noundef ptr @_ZSt3endIN4llvm14iterator_rangeIPKNS0_2gi7PatFrag5ParamEEEEDTcldtfp_3endEERT_(ptr noundef nonnull align 8 dereferenceable(16) %0) #0 comdat {
  %2 = alloca ptr, align 8
  store ptr %0, ptr %2, align 8
  %3 = load ptr, ptr %2, align 8
  %4 = call noundef ptr @_ZNK4llvm14iterator_rangeIPKNS_2gi7PatFrag5ParamEE3endEv(ptr noundef nonnull align 8 dereferenceable(16) %3)
  ret ptr %4
}

; Function Attrs: mustprogress nounwind uwtable
define linkonce_odr noundef ptr @_ZSt5beginIN4llvm14iterator_rangeIPKNS0_2gi7PatFrag5ParamEEEEDTcldtfp_5beginEERT_(ptr noundef nonnull align 8 dereferenceable(16) %0) #0 comdat {
  %2 = alloca ptr, align 8
  store ptr %0, ptr %2, align 8
  %3 = load ptr, ptr %2, align 8
  %4 = call noundef ptr @_ZNK4llvm14iterator_rangeIPKNS_2gi7PatFrag5ParamEE5beginEv(ptr noundef nonnull align 8 dereferenceable(16) %3)
  ret ptr %4
}

; Function Attrs: mustprogress nounwind uwtable
define internal noundef i64 @"_ZSt10__count_ifIPKN4llvm2gi7PatFrag5ParamEN9__gnu_cxx5__ops10_Iter_predIZNKS2_9num_rootsEvE3$_0EEENSt15iterator_traitsIT_E15difference_typeESC_SC_T0_"(ptr noundef %0, ptr noundef %1) #0 {
  %3 = alloca %"struct.__gnu_cxx::__ops::_Iter_pred", align 1
  %4 = alloca ptr, align 8
  %5 = alloca ptr, align 8
  %6 = alloca i64, align 8
  store ptr %0, ptr %4, align 8
  store ptr %1, ptr %5, align 8
  store i64 0, ptr %6, align 8
  br label %7

7:                                                ; preds = %18, %2
  %8 = load ptr, ptr %4, align 8
  %9 = load ptr, ptr %5, align 8
  %10 = icmp ne ptr %8, %9
  br i1 %10, label %11, label %21

11:                                               ; preds = %7
  %12 = load ptr, ptr %4, align 8
  %13 = call noundef zeroext i1 @"_ZN9__gnu_cxx5__ops10_Iter_predIZNK4llvm2gi7PatFrag9num_rootsEvE3$_0EclIPKNS4_5ParamEEEbT_"(ptr noundef nonnull align 1 dereferenceable(1) %3, ptr noundef %12)
  br i1 %13, label %14, label %17

14:                                               ; preds = %11
  %15 = load i64, ptr %6, align 8
  %16 = add nsw i64 %15, 1
  store i64 %16, ptr %6, align 8
  br label %17

17:                                               ; preds = %14, %11
  br label %18

18:                                               ; preds = %17
  %19 = load ptr, ptr %4, align 8
  %20 = getelementptr inbounds %"struct.llvm::gi::PatFrag::Param", ptr %19, i32 1
  store ptr %20, ptr %4, align 8
  br label %7, !llvm.loop !9

21:                                               ; preds = %7
  %22 = load i64, ptr %6, align 8
  ret i64 %22
}

; Function Attrs: mustprogress nounwind uwtable
define internal void @"_ZN9__gnu_cxx5__ops11__pred_iterIZNK4llvm2gi7PatFrag9num_rootsEvE3$_0EENS0_10_Iter_predIT_EES7_"() #0 {
  %1 = alloca %"struct.__gnu_cxx::__ops::_Iter_pred", align 1
  call void @"_ZN9__gnu_cxx5__ops10_Iter_predIZNK4llvm2gi7PatFrag9num_rootsEvE3$_0EC2ES5_"(ptr noundef nonnull align 1 dereferenceable(1) %1)
  ret void
}

; Function Attrs: mustprogress nounwind uwtable
define linkonce_odr hidden noundef ptr @_ZN4llvm10adl_detail8end_implIRNS_14iterator_rangeIPKNS_2gi7PatFrag5ParamEEEEEDTcl3endclsr3stdE7forwardIT_Efp_EEEOSA_(ptr noundef nonnull align 8 dereferenceable(16) %0) #0 comdat {
  %2 = alloca ptr, align 8
  store ptr %0, ptr %2, align 8
  %3 = load ptr, ptr %2, align 8
  %4 = call noundef ptr @_ZSt3endIN4llvm14iterator_rangeIPKNS0_2gi7PatFrag5ParamEEEEDTcldtfp_3endEERT_(ptr noundef nonnull align 8 dereferenceable(16) %3)
  ret ptr %4
}

; Function Attrs: mustprogress nounwind uwtable
define linkonce_odr hidden noundef ptr @_ZN4llvm10adl_detail10begin_implIRNS_14iterator_rangeIPKNS_2gi7PatFrag5ParamEEEEEDTcl5beginclsr3stdE7forwardIT_Efp_EEEOSA_(ptr noundef nonnull align 8 dereferenceable(16) %0) #0 comdat {
  %2 = alloca ptr, align 8
  store ptr %0, ptr %2, align 8
  %3 = load ptr, ptr %2, align 8
  %4 = call noundef ptr @_ZSt5beginIN4llvm14iterator_rangeIPKNS0_2gi7PatFrag5ParamEEEEDTcldtfp_5beginEERT_(ptr noundef nonnull align 8 dereferenceable(16) %3)
  ret ptr %4
}

; Function Attrs: mustprogress nounwind uwtable
define internal noundef i64 @"_ZSt8count_ifIPKN4llvm2gi7PatFrag5ParamEZNKS2_9num_rootsEvE3$_0ENSt15iterator_traitsIT_E15difference_typeES8_S8_T0_"(ptr noundef %0, ptr noundef %1) #0 {
  %3 = alloca ptr, align 8
  %4 = alloca ptr, align 8
  store ptr %0, ptr %3, align 8
  store ptr %1, ptr %4, align 8
  %5 = load ptr, ptr %3, align 8
  %6 = load ptr, ptr %4, align 8
  call void @"_ZN9__gnu_cxx5__ops11__pred_iterIZNK4llvm2gi7PatFrag9num_rootsEvE3$_0EENS0_10_Iter_predIT_EES7_"()
  %7 = call noundef i64 @"_ZSt10__count_ifIPKN4llvm2gi7PatFrag5ParamEN9__gnu_cxx5__ops10_Iter_predIZNKS2_9num_rootsEvE3$_0EEENSt15iterator_traitsIT_E15difference_typeESC_SC_T0_"(ptr noundef %5, ptr noundef %6)
  ret i64 %7
}

; Function Attrs: mustprogress nounwind uwtable
define linkonce_odr hidden noundef ptr @_ZN4llvm7adl_endIRNS_14iterator_rangeIPKNS_2gi7PatFrag5ParamEEEEEDTclsr10adl_detailE8end_implclsr3stdE7forwardIT_Efp_EEEOS9_(ptr noundef nonnull align 8 dereferenceable(16) %0) #0 comdat {
  %2 = alloca ptr, align 8
  store ptr %0, ptr %2, align 8
  %3 = load ptr, ptr %2, align 8
  %4 = call noundef ptr @_ZN4llvm10adl_detail8end_implIRNS_14iterator_rangeIPKNS_2gi7PatFrag5ParamEEEEEDTcl3endclsr3stdE7forwardIT_Efp_EEEOSA_(ptr noundef nonnull align 8 dereferenceable(16) %3)
  ret ptr %4
}

; Function Attrs: mustprogress nounwind uwtable
define linkonce_odr hidden noundef ptr @_ZN4llvm9adl_beginIRNS_14iterator_rangeIPKNS_2gi7PatFrag5ParamEEEEEDTclsr10adl_detailE10begin_implclsr3stdE7forwardIT_Efp_EEEOS9_(ptr noundef nonnull align 8 dereferenceable(16) %0) #0 comdat {
  %2 = alloca ptr, align 8
  store ptr %0, ptr %2, align 8
  %3 = load ptr, ptr %2, align 8
  %4 = call noundef ptr @_ZN4llvm10adl_detail10begin_implIRNS_14iterator_rangeIPKNS_2gi7PatFrag5ParamEEEEEDTcl5beginclsr3stdE7forwardIT_Efp_EEEOSA_(ptr noundef nonnull align 8 dereferenceable(16) %3)
  ret ptr %4
}

; Function Attrs: mustprogress nounwind uwtable
define linkonce_odr hidden void @_ZN4llvm14iterator_rangeIPKNS_2gi7PatFrag5ParamEEC2ES5_S5_(ptr noundef nonnull align 8 dereferenceable(16) %0, ptr noundef %1, ptr noundef %2) unnamed_addr #0 comdat align 2 {
  %4 = alloca ptr, align 8
  %5 = alloca ptr, align 8
  %6 = alloca ptr, align 8
  store ptr %0, ptr %4, align 8
  store ptr %1, ptr %5, align 8
  store ptr %2, ptr %6, align 8
  %7 = load ptr, ptr %4, align 8
  %8 = getelementptr inbounds nuw %"class.llvm::iterator_range.121", ptr %7, i32 0, i32 0
  %9 = load ptr, ptr %5, align 8
  store ptr %9, ptr %8, align 8
  %10 = getelementptr inbounds nuw %"class.llvm::iterator_range.121", ptr %7, i32 0, i32 1
  %11 = load ptr, ptr %6, align 8
  store ptr %11, ptr %10, align 8
  ret void
}

; Function Attrs: mustprogress nounwind uwtable
define linkonce_odr hidden noundef ptr @_ZNK4llvm25SmallVectorTemplateCommonINS_2gi7PatFrag5ParamEvE5beginEv(ptr noundef nonnull align 8 dereferenceable(16) %0) #0 comdat align 2 {
  %2 = alloca ptr, align 8
  store ptr %0, ptr %2, align 8
  %3 = load ptr, ptr %2, align 8
  %4 = getelementptr inbounds nuw %"class.llvm::SmallVectorBase", ptr %3, i32 0, i32 0
  %5 = load ptr, ptr %4, align 8
  ret ptr %5
}

; Function Attrs: mustprogress nounwind uwtable
define internal noundef i64 @"_ZN4llvm8count_ifINS_14iterator_rangeIPKNS_2gi7PatFrag5ParamEEEZNKS3_9num_rootsEvE3$_0EEDaOT_T0_"(ptr noundef nonnull align 8 dereferenceable(16) %0) #0 {
  %2 = alloca ptr, align 8
  store ptr %0, ptr %2, align 8
  %3 = load ptr, ptr %2, align 8
  %4 = call noundef ptr @_ZN4llvm9adl_beginIRNS_14iterator_rangeIPKNS_2gi7PatFrag5ParamEEEEEDTclsr10adl_detailE10begin_implclsr3stdE7forwardIT_Efp_EEEOS9_(ptr noundef nonnull align 8 dereferenceable(16) %3)
  %5 = load ptr, ptr %2, align 8
  %6 = call noundef ptr @_ZN4llvm7adl_endIRNS_14iterator_rangeIPKNS_2gi7PatFrag5ParamEEEEEDTclsr10adl_detailE8end_implclsr3stdE7forwardIT_Efp_EEEOS9_(ptr noundef nonnull align 8 dereferenceable(16) %5)
  %7 = call noundef i64 @"_ZSt8count_ifIPKN4llvm2gi7PatFrag5ParamEZNKS2_9num_rootsEvE3$_0ENSt15iterator_traitsIT_E15difference_typeES8_S8_T0_"(ptr noundef %4, ptr noundef %6)
  ret i64 %7
}

; Function Attrs: mustprogress nounwind uwtable
define dso_local { ptr, ptr } @_ZNK4llvm2gi7PatFrag10out_paramsEv(ptr noundef nonnull align 8 dereferenceable(288) %0) #0 align 2 {
  %2 = alloca %"class.llvm::iterator_range.121", align 8
  %3 = alloca ptr, align 8
  store ptr %0, ptr %3, align 8
  %4 = load ptr, ptr %3, align 8
  %5 = getelementptr inbounds nuw %"class.llvm::gi::PatFrag", ptr %4, i32 0, i32 2
  %6 = call noundef ptr @_ZNK4llvm25SmallVectorTemplateCommonINS_2gi7PatFrag5ParamEvE5beginEv(ptr noundef nonnull align 8 dereferenceable(16) %5)
  %7 = getelementptr inbounds nuw %"class.llvm::gi::PatFrag", ptr %4, i32 0, i32 2
  %8 = call noundef ptr @_ZNK4llvm25SmallVectorTemplateCommonINS_2gi7PatFrag5ParamEvE5beginEv(ptr noundef nonnull align 8 dereferenceable(16) %7)
  %9 = getelementptr inbounds nuw %"class.llvm::gi::PatFrag", ptr %4, i32 0, i32 1
  %10 = load i32, ptr %9, align 8
  %11 = zext i32 %10 to i64
  %12 = getelementptr inbounds %"struct.llvm::gi::PatFrag::Param", ptr %8, i64 %11
  call void @_ZN4llvm14iterator_rangeIPKNS_2gi7PatFrag5ParamEEC2ES5_S5_(ptr noundef nonnull align 8 dereferenceable(16) %2, ptr noundef %6, ptr noundef %12)
  %13 = load { ptr, ptr }, ptr %2, align 8
  ret { ptr, ptr } %13
}

; Function Attrs: mustprogress nounwind uwtable
define dso_local noundef i32 @_ZNK4llvm2gi7PatFrag9num_rootsEv(ptr noundef nonnull align 8 dereferenceable(288) %0) #0 align 2 {
  %2 = alloca ptr, align 8
  %3 = alloca %"class.llvm::iterator_range.121", align 8
  store ptr %0, ptr %2, align 8
  %4 = load ptr, ptr %2, align 8
  %5 = call { ptr, ptr } @_ZNK4llvm2gi7PatFrag10out_paramsEv(ptr noundef nonnull align 8 dereferenceable(288) %4)
  %6 = getelementptr inbounds nuw { ptr, ptr }, ptr %3, i32 0, i32 0
  %7 = extractvalue { ptr, ptr } %5, 0
  store ptr %7, ptr %6, align 8
  %8 = getelementptr inbounds nuw { ptr, ptr }, ptr %3, i32 0, i32 1
  %9 = extractvalue { ptr, ptr } %5, 1
  store ptr %9, ptr %8, align 8
  %10 = call noundef i64 @"_ZN4llvm8count_ifINS_14iterator_rangeIPKNS_2gi7PatFrag5ParamEEEZNKS3_9num_rootsEvE3$_0EEDaOT_T0_"(ptr noundef nonnull align 8 dereferenceable(16) %3)
  %11 = trunc i64 %10 to i32
  ret i32 %11
}