; Function Attrs: mustprogress nofree norecurse nosync nounwind willreturn memory(read, inaccessiblemem: none) uwtable
define dso_local noundef i32 @_ZNK4llvm2gi7PatFrag9num_rootsEv(ptr nocapture noundef nonnull readonly align 8 dereferenceable(288) %0) local_unnamed_addr #7 align 2 {
  %2 = getelementptr inbounds nuw i8, ptr %0, i64 16
  %3 = load ptr, ptr %2, align 8
  %4 = getelementptr inbounds nuw i8, ptr %0, i64 8
  %5 = load i32, ptr %4, align 8
  %6 = zext i32 %5 to i64
  %7 = getelementptr inbounds %"struct.llvm::gi::PatFrag::Param", ptr %3, i64 %6
  %.not6.i.i.i = icmp eq i32 %5, 0
  br i1 %.not6.i.i.i, label %"_ZN4llvm8count_ifINS_14iterator_rangeIPKNS_2gi7PatFrag5ParamEEEZNKS3_9num_rootsEvE3$_0EEDaOT_T0_.exit", label %.lr.ph.i.i.i

.lr.ph.i.i.i:                                     ; preds = %1, %.lr.ph.i.i.i
  %.08.i.i.i = phi i32 [ %spec.select.i.i.i, %.lr.ph.i.i.i ], [ 0, %1 ]
  %.057.i.i.i = phi ptr [ %11, %.lr.ph.i.i.i ], [ %3, %1 ]
  %8 = getelementptr i8, ptr %.057.i.i.i, i64 16
  %.05.val.i.i.i = load i32, ptr %8, align 8
  %9 = icmp eq i32 %.05.val.i.i.i, 0
  %10 = zext i1 %9 to i32
  %spec.select.i.i.i = add i32 %.08.i.i.i, %10
  %11 = getelementptr inbounds i8, ptr %.057.i.i.i, i64 24
  %.not.i.i.i = icmp eq ptr %11, %7
  br i1 %.not.i.i.i, label %"_ZN4llvm8count_ifINS_14iterator_rangeIPKNS_2gi7PatFrag5ParamEEEZNKS3_9num_rootsEvE3$_0EEDaOT_T0_.exit", label %.lr.ph.i.i.i, !llvm.loop !382

"_ZN4llvm8count_ifINS_14iterator_rangeIPKNS_2gi7PatFrag5ParamEEEZNKS3_9num_rootsEvE3$_0EEDaOT_T0_.exit": ; preds = %.lr.ph.i.i.i, %1
  %.0.lcssa.i.i.i = phi i32 [ 0, %1 ], [ %spec.select.i.i.i, %.lr.ph.i.i.i ]
  ret i32 %.0.lcssa.i.i.i
}